target datalayout = "e-m:e-p270:32:32-p271:32:32-p272:64:64-i64:64-i128:128-f80:128-n8:16:32:64-S128"
target triple = "x86_64-pc-linux-gnu"

; Function Attrs: nounwind uwtable
define i32 @lv_trigo_sin(i16 noundef signext %0) #0 {
  %2 = alloca i32, align 4
  %3 = alloca i16, align 2
  %4 = alloca i32, align 4
  %5 = alloca i32, align 4
  store i16 %0, ptr %3, align 2, !tbaa !3
  call void @llvm.lifetime.start.p0(i64 4, ptr %4) #2
  store i32 0, ptr %4, align 4, !tbaa !7
  br label %6

6:                                                ; preds = %10, %1
  %7 = load i16, ptr %3, align 2, !tbaa !3
  %8 = sext i16 %7 to i32
  %9 = icmp slt i32 %8, 0
  br i1 %9, label %10, label %15

10:                                               ; preds = %6
  %11 = load i16, ptr %3, align 2, !tbaa !3
  %12 = sext i16 %11 to i32
  %13 = add nsw i32 %12, 360
  %14 = trunc i32 %13 to i16
  store i16 %14, ptr %3, align 2, !tbaa !3
  br label %6, !llvm.loop !9

15:                                               ; preds = %6
  br label %16

16:                                               ; preds = %20, %15
  %17 = load i16, ptr %3, align 2, !tbaa !3
  %18 = sext i16 %17 to i32
  %19 = icmp sge i32 %18, 360
  br i1 %19, label %20, label %25

20:                                               ; preds = %16
  %21 = load i16, ptr %3, align 2, !tbaa !3
  %22 = sext i16 %21 to i32
  %23 = sub nsw i32 %22, 360
  %24 = trunc i32 %23 to i16
  store i16 %24, ptr %3, align 2, !tbaa !3
  br label %16, !llvm.loop !11

25:                                               ; preds = %16
  %26 = load i16, ptr %3, align 2, !tbaa !3
  %27 = sext i16 %26 to i32
  %28 = icmp slt i32 %27, 90
  br i1 %28, label %29, label %35

29:                                               ; preds = %25
  %30 = load i16, ptr %3, align 2, !tbaa !3
  %31 = sext i16 %30 to i64
  %32 = getelementptr inbounds [91 x i16], ptr @sin0_90_table, i64 0, i64 %31
  %33 = load i16, ptr %32, align 2, !tbaa !3
  %34 = zext i16 %33 to i32
  store i32 %34, ptr %4, align 4, !tbaa !7
  br label %85

35:                                               ; preds = %25
  %36 = load i16, ptr %3, align 2, !tbaa !3
  %37 = sext i16 %36 to i32
  %38 = icmp sge i32 %37, 90
  br i1 %38, label %39, label %53

39:                                               ; preds = %35
  %40 = load i16, ptr %3, align 2, !tbaa !3
  %41 = sext i16 %40 to i32
  %42 = icmp slt i32 %41, 180
  br i1 %42, label %43, label %53

43:                                               ; preds = %39
  %44 = load i16, ptr %3, align 2, !tbaa !3
  %45 = sext i16 %44 to i32
  %46 = sub nsw i32 180, %45
  %47 = trunc i32 %46 to i16
  store i16 %47, ptr %3, align 2, !tbaa !3
  %48 = load i16, ptr %3, align 2, !tbaa !3
  %49 = sext i16 %48 to i64
  %50 = getelementptr inbounds [91 x i16], ptr @sin0_90_table, i64 0, i64 %49
  %51 = load i16, ptr %50, align 2, !tbaa !3
  %52 = zext i16 %51 to i32
  store i32 %52, ptr %4, align 4, !tbaa !7
  br label %84

53:                                               ; preds = %39, %35
  %54 = load i16, ptr %3, align 2, !tbaa !3
  %55 = sext i16 %54 to i32
  %56 = icmp sge i32 %55, 180
  br i1 %56, label %57, label %72

57:                                               ; preds = %53
  %58 = load i16, ptr %3, align 2, !tbaa !3
  %59 = sext i16 %58 to i32
  %60 = icmp slt i32 %59, 270
  br i1 %60, label %61, label %72

61:                                               ; preds = %57
  %62 = load i16, ptr %3, align 2, !tbaa !3
  %63 = sext i16 %62 to i32
  %64 = sub nsw i32 %63, 180
  %65 = trunc i32 %64 to i16
  store i16 %65, ptr %3, align 2, !tbaa !3
  %66 = load i16, ptr %3, align 2, !tbaa !3
  %67 = sext i16 %66 to i64
  %68 = getelementptr inbounds [91 x i16], ptr @sin0_90_table, i64 0, i64 %67
  %69 = load i16, ptr %68, align 2, !tbaa !3
  %70 = zext i16 %69 to i32
  %71 = sub nsw i32 0, %70
  store i32 %71, ptr %4, align 4, !tbaa !7
  br label %83

72:                                               ; preds = %57, %53
  %73 = load i16, ptr %3, align 2, !tbaa !3
  %74 = sext i16 %73 to i32
  %75 = sub nsw i32 360, %74
  %76 = trunc i32 %75 to i16
  store i16 %76, ptr %3, align 2, !tbaa !3
  %77 = load i16, ptr %3, align 2, !tbaa !3
  %78 = sext i16 %77 to i64
  %79 = getelementptr inbounds [91 x i16], ptr @sin0_90_table, i64 0, i64 %78
  %80 = load i16, ptr %79, align 2, !tbaa !3
  %81 = zext i16 %80 to i32
  %82 = sub nsw i32 0, %81
  store i32 %82, ptr %4, align 4, !tbaa !7
  br label %83

83:                                               ; preds = %72, %61
  br label %84

84:                                               ; preds = %83, %43
  br label %85

85:                                               ; preds = %84, %29
  %86 = load i32, ptr %4, align 4, !tbaa !7
  %87 = icmp eq i32 %86, 32767
  br i1 %87, label %88, label %89

88:                                               ; preds = %85
  store i32 32768, ptr %2, align 4
  store i32 1, ptr %5, align 4
  br label %95

89:                                               ; preds = %85
  %90 = load i32, ptr %4, align 4, !tbaa !7
  %91 = icmp eq i32 %90, -32767
  br i1 %91, label %92, label %93

92:                                               ; preds = %89
  store i32 -32768, ptr %2, align 4
  store i32 1, ptr %5, align 4
  br label %95

93:                                               ; preds = %89
  %94 = load i32, ptr %4, align 4, !tbaa !7
  store i32 %94, ptr %2, align 4
  store i32 1, ptr %5, align 4
  br label %95

95:                                               ; preds = %93, %92, %88
  call void @llvm.lifetime.end.p0(i64 4, ptr %4) #2
  %96 = load i32, ptr %2, align 4
  ret i32 %96
}