; Function Attrs: mustprogress nofree norecurse nosync nounwind willreturn memory(none) uwtable
define range(i32 -65535, 65536) i32 @lv_trigo_sin(i16 noundef signext %0) local_unnamed_addr #0 {
.preheader.preheader:
  %smax = tail call i16 @llvm.smax.i16(i16 %0, i16 0)
  %.lobit = lshr i16 %0, 15
  %1 = add i16 %0, %.lobit
  %2 = sub i16 %smax, %1
  %3 = udiv i16 %2, 360
  %4 = add nuw nsw i16 %.lobit, %3
  %5 = mul i16 %4, 360
  %6 = add i16 %0, %5
  %7 = tail call i16 @llvm.umax.i16(i16 %6, i16 359)
  %8 = urem i16 %7, 360
  %.neg = sub i16 %8, %7
  %9 = add i16 %.neg, %6
  %10 = icmp ult i16 %9, 90
  br i1 %10, label %11, label %16

11:                                               ; preds = %.preheader.preheader
  %12 = zext nneg i16 %9 to i64
  %13 = getelementptr inbounds [91 x i16], ptr @sin0_90_table, i64 0, i64 %12
  %14 = load i16, ptr %13, align 2, !tbaa !3
  %15 = zext i16 %14 to i32
  br label %40

16:                                               ; preds = %.preheader.preheader
  %17 = icmp ult i16 %9, 180
  br i1 %17, label %18, label %24

18:                                               ; preds = %16
  %19 = sub nuw nsw i16 180, %9
  %20 = zext nneg i16 %19 to i64
  %21 = getelementptr inbounds [91 x i16], ptr @sin0_90_table, i64 0, i64 %20
  %22 = load i16, ptr %21, align 2, !tbaa !3
  %23 = zext i16 %22 to i32
  br label %40

24:                                               ; preds = %16
  %25 = icmp ult i16 %9, 270
  br i1 %25, label %26, label %33

26:                                               ; preds = %24
  %27 = add nsw i16 %9, -180
  %28 = zext nneg i16 %27 to i64
  %29 = getelementptr inbounds [91 x i16], ptr @sin0_90_table, i64 0, i64 %28
  %30 = load i16, ptr %29, align 2, !tbaa !3
  %31 = zext i16 %30 to i32
  %32 = sub nsw i32 0, %31
  br label %40

33:                                               ; preds = %24
  %34 = sub nuw nsw i16 360, %9
  %35 = zext nneg i16 %34 to i64
  %36 = getelementptr inbounds [91 x i16], ptr @sin0_90_table, i64 0, i64 %35
  %37 = load i16, ptr %36, align 2, !tbaa !3
  %38 = zext i16 %37 to i32
  %39 = sub nsw i32 0, %38
  br label %40

40:                                               ; preds = %18, %33, %26, %11
  %.0 = phi i32 [ %15, %11 ], [ %23, %18 ], [ %32, %26 ], [ %39, %33 ]
  switch i32 %.0, label %42 [
    i32 32767, label %43
    i32 -32767, label %41
  ]

41:                                               ; preds = %40
  br label %43

42:                                               ; preds = %40
  br label %43

43:                                               ; preds = %40, %42, %41
  %.026 = phi i32 [ -32768, %41 ], [ %.0, %42 ], [ 32768, %40 ]
  ret i32 %.026
}